; Function Attrs: nounwind uwtable
define internal fastcc range(i32 -1, 1) i32 @print_chained(ptr noundef nonnull readonly captures(none) %0, ptr noundef nonnull %1, ptr noundef %2) unnamed_addr #0 {
  %4 = load ptr, ptr %0, align 8, !tbaa !196
  %5 = tail call align 8 ptr @llvm.threadlocal.address.p0(ptr align 8 @_Py_tss_tstate)
  %6 = load ptr, ptr %5, align 8, !tbaa !4
  %7 = getelementptr inbounds nuw i8, ptr %6, i64 52
  %8 = load i32, ptr %7, align 4, !tbaa !199
  %9 = add i32 %8, -1
  store i32 %9, ptr %7, align 4, !tbaa !199
  %.not.i.i = icmp sgt i32 %8, -1
  br i1 %.not.i.i, label %_Py_EnterRecursiveCall.exit.thread, label %_Py_EnterRecursiveCall.exit

_Py_EnterRecursiveCall.exit:                      ; preds = %3
  %10 = tail call i32 @_Py_CheckRecursiveCall(ptr noundef nonnull %6, ptr noundef nonnull @.str.40) #8
  %.not2 = icmp eq i32 %10, 0
  br i1 %.not2, label %_Py_EnterRecursiveCall.exit.thread, label %25

_Py_EnterRecursiveCall.exit.thread:               ; preds = %3, %_Py_EnterRecursiveCall.exit
  %11 = tail call fastcc i32 @print_exception_recursive(ptr noundef %0, ptr noundef nonnull %1)
  %12 = load ptr, ptr %5, align 8, !tbaa !4
  %13 = getelementptr inbounds nuw i8, ptr %12, i64 52
  %14 = load i32, ptr %13, align 4, !tbaa !199
  %15 = add i32 %14, 1
  store i32 %15, ptr %13, align 4, !tbaa !199
  %16 = icmp slt i32 %11, 0
  br i1 %16, label %25, label %17

17:                                               ; preds = %_Py_EnterRecursiveCall.exit.thread
  %18 = tail call i32 @PyFile_WriteString(ptr noundef nonnull @.str.12, ptr noundef %4) #8
  %19 = icmp slt i32 %18, 0
  br i1 %19, label %25, label %20

20:                                               ; preds = %17
  %21 = tail call i32 @PyFile_WriteString(ptr noundef %2, ptr noundef %4) #8
  %22 = icmp slt i32 %21, 0
  br i1 %22, label %25, label %23

23:                                               ; preds = %20
  %24 = tail call i32 @PyFile_WriteString(ptr noundef nonnull @.str.12, ptr noundef %4) #8
  %.lobit = ashr i32 %24, 31
  br label %25

25:                                               ; preds = %_Py_EnterRecursiveCall.exit.thread, %17, %20, %23, %_Py_EnterRecursiveCall.exit
  %.0 = phi i32 [ -1, %_Py_EnterRecursiveCall.exit ], [ -1, %_Py_EnterRecursiveCall.exit.thread ], [ -1, %17 ], [ -1, %20 ], [ %.lobit, %23 ]
  ret i32 %.0
}